; Function Attrs: nounwind uwtable
define ptr @l___private_Std_Sync_Channel_0__Std_CloseableChannel_Bounded_recv___rarg___lambda__1(ptr noundef %0, ptr noundef %1, ptr noundef %2, ptr noundef %3) local_unnamed_addr #1 {
  %5 = ptrtoint ptr %2 to i64
  %6 = and i64 %5, 1
  %.not.i28 = icmp eq i64 %6, 0
  br i1 %.not.i28, label %10, label %7

7:                                                ; preds = %4
  %8 = lshr i64 %5, 1
  %9 = trunc i64 %8 to i32
  br label %lean_obj_tag.exit

10:                                               ; preds = %4
  %11 = getelementptr i8, ptr %2, i64 4
  %.val.i = load i32, ptr %11, align 4
  %12 = lshr i32 %.val.i, 24
  br label %lean_obj_tag.exit

lean_obj_tag.exit:                                ; preds = %7, %10
  %.0.i = phi i32 [ %9, %7 ], [ %12, %10 ]
  %13 = icmp eq i32 %.0.i, 0
  br i1 %13, label %14, label %31

14:                                               ; preds = %lean_obj_tag.exit
  %15 = ptrtoint ptr %1 to i64
  %16 = and i64 %15, 1
  %.not31 = icmp eq i64 %16, 0
  br i1 %.not31, label %17, label %lean_dec.exit23

17:                                               ; preds = %14
  %18 = load i32, ptr %1, align 4, !tbaa !4
  %19 = icmp sgt i32 %18, 1
  br i1 %19, label %20, label %22, !prof !9

20:                                               ; preds = %17
  %21 = add nsw i32 %18, -1
  store i32 %21, ptr %1, align 4, !tbaa !4
  br label %lean_dec.exit23

22:                                               ; preds = %17
  %.not.i = icmp eq i32 %18, 0
  br i1 %.not.i, label %lean_dec.exit23, label %23

23:                                               ; preds = %22
  tail call void @lean_dec_ref_cold(ptr noundef nonnull %1) #7
  br label %lean_dec.exit23

lean_dec.exit23:                                  ; preds = %23, %22, %20, %14
  %24 = tail call ptr @lean_task_pure(ptr noundef %0) #7
  tail call void @lean_inc_heartbeat() #7
  %25 = tail call noalias ptr @mi_malloc_small(i64 noundef 24) #7
  %26 = icmp eq ptr %25, null
  br i1 %26, label %27, label %lean_alloc_ctor.exit

27:                                               ; preds = %lean_dec.exit23
  tail call void @lean_internal_panic_out_of_memory() #8
  unreachable

lean_alloc_ctor.exit:                             ; preds = %lean_dec.exit23
  %28 = getelementptr inbounds nuw i8, ptr %25, i64 4
  store i32 1, ptr %25, align 4, !tbaa !4
  store i32 131096, ptr %28, align 4
  %29 = getelementptr inbounds nuw i8, ptr %25, i64 8
  store ptr %24, ptr %29, align 8, !tbaa !10
  %30 = getelementptr inbounds nuw i8, ptr %25, i64 16
  store ptr %3, ptr %30, align 8, !tbaa !10
  br label %65

31:                                               ; preds = %lean_obj_tag.exit
  %32 = getelementptr inbounds nuw i8, ptr %2, i64 8
  %33 = load ptr, ptr %32, align 8, !tbaa !10
  %34 = ptrtoint ptr %33 to i64
  %35 = and i64 %34, 510
  %36 = icmp eq i64 %35, 0
  br i1 %36, label %37, label %54

37:                                               ; preds = %31
  %38 = ptrtoint ptr %1 to i64
  %39 = and i64 %38, 1
  %.not30 = icmp eq i64 %39, 0
  br i1 %.not30, label %40, label %lean_dec.exit22

40:                                               ; preds = %37
  %41 = load i32, ptr %1, align 4, !tbaa !4
  %42 = icmp sgt i32 %41, 1
  br i1 %42, label %43, label %45, !prof !9

43:                                               ; preds = %40
  %44 = add nsw i32 %41, -1
  store i32 %44, ptr %1, align 4, !tbaa !4
  br label %lean_dec.exit22

45:                                               ; preds = %40
  %.not.i24 = icmp eq i32 %41, 0
  br i1 %.not.i24, label %lean_dec.exit22, label %46

46:                                               ; preds = %45
  tail call void @lean_dec_ref_cold(ptr noundef nonnull %1) #7
  br label %lean_dec.exit22

lean_dec.exit22:                                  ; preds = %46, %45, %43, %37
  %47 = tail call ptr @lean_task_pure(ptr noundef %0) #7
  tail call void @lean_inc_heartbeat() #7
  %48 = tail call noalias ptr @mi_malloc_small(i64 noundef 24) #7
  %49 = icmp eq ptr %48, null
  br i1 %49, label %50, label %lean_alloc_ctor.exit29

50:                                               ; preds = %lean_dec.exit22
  tail call void @lean_internal_panic_out_of_memory() #8
  unreachable

lean_alloc_ctor.exit29:                           ; preds = %lean_dec.exit22
  %51 = getelementptr inbounds nuw i8, ptr %48, i64 4
  store i32 1, ptr %48, align 4, !tbaa !4
  store i32 131096, ptr %51, align 4
  %52 = getelementptr inbounds nuw i8, ptr %48, i64 8
  store ptr %47, ptr %52, align 8, !tbaa !10
  %53 = getelementptr inbounds nuw i8, ptr %48, i64 16
  store ptr %3, ptr %53, align 8, !tbaa !10
  br label %65

54:                                               ; preds = %31
  %55 = ptrtoint ptr %0 to i64
  %56 = and i64 %55, 1
  %.not = icmp eq i64 %56, 0
  br i1 %.not, label %57, label %lean_dec.exit

57:                                               ; preds = %54
  %58 = load i32, ptr %0, align 4, !tbaa !4
  %59 = icmp sgt i32 %58, 1
  br i1 %59, label %60, label %62, !prof !9

60:                                               ; preds = %57
  %61 = add nsw i32 %58, -1
  store i32 %61, ptr %0, align 4, !tbaa !4
  br label %lean_dec.exit

62:                                               ; preds = %57
  %.not.i26 = icmp eq i32 %58, 0
  br i1 %.not.i26, label %lean_dec.exit, label %63

63:                                               ; preds = %62
  tail call void @lean_dec_ref_cold(ptr noundef nonnull %0) #7
  br label %lean_dec.exit

lean_dec.exit:                                    ; preds = %63, %62, %60, %54
  %64 = tail call ptr @l___private_Std_Sync_Channel_0__Std_CloseableChannel_Bounded_recv___rarg(ptr noundef %1, ptr noundef %3)
  br label %65

65:                                               ; preds = %lean_alloc_ctor.exit29, %lean_dec.exit, %lean_alloc_ctor.exit
  %.0 = phi ptr [ %25, %lean_alloc_ctor.exit ], [ %48, %lean_alloc_ctor.exit29 ], [ %64, %lean_dec.exit ]
  ret ptr %.0
}